; Function Attrs: mustprogress uwtable
define void @_ZN4YAML7Emitter24BlockMapPrepareSimpleKeyENS_15EmitterNodeType5valueE(ptr noundef nonnull align 8 dereferenceable(72) %0, i32 noundef %1) local_unnamed_addr #0 align 2 {
  %3 = alloca i8, align 1
  %4 = load ptr, ptr %0, align 8, !tbaa !3
  %5 = getelementptr inbounds nuw i8, ptr %4, i64 200
  %6 = load i64, ptr %5, align 8, !tbaa !53
  %7 = tail call noundef i64 @_ZNK4YAML12EmitterState18CurGroupChildCountEv(ptr noundef nonnull align 8 dereferenceable(224) %4)
  %8 = icmp eq i32 %1, 0
  br i1 %8, label %_ZN4YAML7Emitter15SpaceOrIndentToEbm.exit, label %9

9:                                                ; preds = %2
  %10 = load ptr, ptr %0, align 8, !tbaa !3
  %11 = getelementptr inbounds nuw i8, ptr %10, i64 208
  %12 = load i8, ptr %11, align 8, !tbaa !48, !range !39, !noundef !40
  %13 = trunc nuw i8 %12 to i1
  br i1 %13, label %_ZNK4YAML12EmitterState12HasBegunNodeEv.exit.thread, label %14

14:                                               ; preds = %9
  %15 = getelementptr inbounds nuw i8, ptr %10, i64 210
  %16 = load i8, ptr %15, align 2, !tbaa !49, !range !39, !noundef !40
  %17 = trunc nuw i8 %16 to i1
  br i1 %17, label %_ZNK4YAML12EmitterState12HasBegunNodeEv.exit.thread, label %_ZNK4YAML12EmitterState12HasBegunNodeEv.exit

_ZNK4YAML12EmitterState12HasBegunNodeEv.exit:     ; preds = %14
  %18 = getelementptr inbounds nuw i8, ptr %10, i64 211
  %19 = load i8, ptr %18, align 1, !tbaa !52, !range !39, !noundef !40
  %20 = trunc nuw i8 %19 to i1
  %21 = icmp eq i64 %7, 0
  %or.cond.not = or i1 %21, %20
  br i1 %or.cond.not, label %_ZNK4YAML12EmitterState12HasBegunNodeEv.exit.thread, label %22

22:                                               ; preds = %_ZNK4YAML12EmitterState12HasBegunNodeEv.exit
  %23 = getelementptr inbounds nuw i8, ptr %0, i64 8
  tail call void @_ZN4YAML15ostream_wrapper5writeEPKcm(ptr noundef nonnull align 8 dereferenceable(57) %23, ptr noundef nonnull @.str.1, i64 noundef 1)
  br label %_ZNK4YAML12EmitterState12HasBegunNodeEv.exit.thread

_ZNK4YAML12EmitterState12HasBegunNodeEv.exit.thread: ; preds = %9, %14, %22, %_ZNK4YAML12EmitterState12HasBegunNodeEv.exit
  switch i32 %1, label %_ZN4YAML7Emitter15SpaceOrIndentToEbm.exit [
    i32 5, label %24
    i32 1, label %24
    i32 2, label %24
    i32 3, label %24
  ]

24:                                               ; preds = %_ZNK4YAML12EmitterState12HasBegunNodeEv.exit.thread, %_ZNK4YAML12EmitterState12HasBegunNodeEv.exit.thread, %_ZNK4YAML12EmitterState12HasBegunNodeEv.exit.thread, %_ZNK4YAML12EmitterState12HasBegunNodeEv.exit.thread
  %25 = load ptr, ptr %0, align 8, !tbaa !3
  %26 = getelementptr inbounds nuw i8, ptr %25, i64 208
  %27 = load i8, ptr %26, align 8, !tbaa !48, !range !39, !noundef !40
  %28 = trunc nuw i8 %27 to i1
  %29 = getelementptr inbounds nuw i8, ptr %25, i64 210
  %30 = load i8, ptr %29, align 2, !range !39
  %31 = trunc nuw i8 %30 to i1
  %32 = select i1 %28, i1 true, i1 %31
  %33 = getelementptr inbounds nuw i8, ptr %0, i64 8
  %34 = getelementptr inbounds nuw i8, ptr %0, i64 64
  %35 = load i8, ptr %34, align 8, !tbaa !51, !range !39, !noundef !40
  %36 = trunc nuw i8 %35 to i1
  br i1 %36, label %37, label %38

37:                                               ; preds = %24
  tail call void @_ZN4YAML15ostream_wrapper5writeEPKcm(ptr noundef nonnull align 8 dereferenceable(57) %33, ptr noundef nonnull @.str.1, i64 noundef 1)
  br label %38

38:                                               ; preds = %37, %24
  %39 = getelementptr inbounds nuw i8, ptr %0, i64 56
  %40 = load i64, ptr %39, align 8, !tbaa !50
  %.not.i = icmp ne i64 %40, 0
  %brmerge.not.i = and i1 %32, %.not.i
  br i1 %brmerge.not.i, label %41, label %42

41:                                               ; preds = %38
  tail call void @_ZN4YAML15ostream_wrapper5writeEPKcm(ptr noundef nonnull align 8 dereferenceable(57) %33, ptr noundef nonnull @.str.13, i64 noundef 1)
  %.pre.i = load i64, ptr %39, align 8, !tbaa !50
  br label %42

42:                                               ; preds = %41, %38
  %43 = phi i64 [ %40, %38 ], [ %.pre.i, %41 ]
  %44 = icmp ult i64 %43, %6
  br i1 %44, label %.lr.ph.i.i, label %_ZN4YAML7Emitter15SpaceOrIndentToEbm.exit

.lr.ph.i.i:                                       ; preds = %42, %.lr.ph.i.i
  call void @llvm.lifetime.start.p0(i64 1, ptr nonnull %3)
  store i8 32, ptr %3, align 1, !tbaa !20
  call void @_ZN4YAML15ostream_wrapper5writeEPKcm(ptr noundef nonnull align 8 dereferenceable(57) %33, ptr noundef nonnull %3, i64 noundef 1)
  call void @llvm.lifetime.end.p0(i64 1, ptr nonnull %3)
  %45 = load i64, ptr %39, align 8, !tbaa !50
  %46 = icmp ult i64 %45, %6
  br i1 %46, label %.lr.ph.i.i, label %_ZN4YAML7Emitter15SpaceOrIndentToEbm.exit, !llvm.loop !54

_ZN4YAML7Emitter15SpaceOrIndentToEbm.exit:        ; preds = %.lr.ph.i.i, %42, %_ZNK4YAML12EmitterState12HasBegunNodeEv.exit.thread, %2
  ret void
}